; Function Attrs: mustprogress nofree nounwind null_pointer_is_valid sspstrong willreturn memory(read, inaccessiblemem: none) uwtable
define internal fastcc zeroext range(i8 -2, 1) i8 @dvbci_get_evt_from_addrs(ptr noundef readonly captures(none) %0) unnamed_addr #9 {
  %2 = getelementptr inbounds nuw i8, ptr %0, i64 208
  %3 = load i32, ptr %2, align 8
  %4 = icmp eq i32 %3, 7
  br i1 %4, label %5, label %addresses_equal.exit9

5:                                                ; preds = %1
  %6 = getelementptr inbounds nuw i8, ptr %0, i64 212
  %7 = load i32, ptr %6, align 4
  switch i32 %7, label %addresses_equal.exit9 [
    i32 4, label %8
    i32 5, label %24
  ]

8:                                                ; preds = %5
  %9 = getelementptr inbounds nuw i8, ptr %0, i64 216
  %10 = load ptr, ptr %9, align 8
  %bcmp.i = tail call i32 @bcmp(ptr noundef dereferenceable(4) %10, ptr noundef nonnull dereferenceable(4) @.str.6, i64 4)
  %11 = icmp eq i32 %bcmp.i, 0
  br i1 %11, label %12, label %.thread

12:                                               ; preds = %8
  %13 = getelementptr inbounds nuw i8, ptr %0, i64 232
  %14 = load i32, ptr %13, align 8
  %15 = icmp eq i32 %14, 7
  br i1 %15, label %16, label %.thread

16:                                               ; preds = %12
  %17 = getelementptr inbounds nuw i8, ptr %0, i64 236
  %18 = load i32, ptr %17, align 4
  %19 = icmp eq i32 %18, 5
  br i1 %19, label %20, label %.thread

20:                                               ; preds = %16
  %21 = getelementptr inbounds nuw i8, ptr %0, i64 240
  %22 = load ptr, ptr %21, align 8
  %bcmp.i5 = tail call i32 @bcmp(ptr noundef dereferenceable(5) %22, ptr noundef nonnull dereferenceable(5) @.str.5, i64 5)
  %23 = icmp eq i32 %bcmp.i5, 0
  br i1 %23, label %addresses_equal.exit9, label %.thread

.thread:                                          ; preds = %20, %16, %12, %8
  br label %addresses_equal.exit9

24:                                               ; preds = %5
  %25 = getelementptr inbounds nuw i8, ptr %0, i64 216
  %26 = load ptr, ptr %25, align 8
  %bcmp.i8 = tail call i32 @bcmp(ptr noundef dereferenceable(5) %26, ptr noundef nonnull dereferenceable(5) @.str.5, i64 5)
  %27 = icmp eq i32 %bcmp.i8, 0
  br i1 %27, label %28, label %addresses_equal.exit9

28:                                               ; preds = %24
  %29 = getelementptr inbounds nuw i8, ptr %0, i64 232
  %30 = load i32, ptr %29, align 8
  %31 = icmp eq i32 %30, 7
  br i1 %31, label %32, label %addresses_equal.exit9

32:                                               ; preds = %28
  %33 = getelementptr inbounds nuw i8, ptr %0, i64 236
  %34 = load i32, ptr %33, align 4
  %35 = icmp eq i32 %34, 4
  br i1 %35, label %36, label %addresses_equal.exit9

36:                                               ; preds = %32
  %37 = getelementptr inbounds nuw i8, ptr %0, i64 240
  %38 = load ptr, ptr %37, align 8
  %bcmp.i11 = tail call i32 @bcmp(ptr noundef dereferenceable(4) %38, ptr noundef nonnull dereferenceable(4) @.str.6, i64 4)
  %39 = icmp eq i32 %bcmp.i11, 0
  %spec.select = select i1 %39, i8 -2, i8 0
  br label %addresses_equal.exit9

addresses_equal.exit9:                            ; preds = %5, %.thread, %36, %20, %24, %1, %28, %32
  %.0 = phi i8 [ 0, %32 ], [ 0, %28 ], [ 0, %1 ], [ 0, %24 ], [ -1, %20 ], [ %spec.select, %36 ], [ 0, %.thread ], [ 0, %5 ]
  ret i8 %.0
}